; Function Attrs: mustprogress nounwind uwtable
define hidden void @_ZNK14KlassInfoHisto14print_elementsEP12outputStream(ptr nocapture noundef nonnull readonly align 8 dereferenceable(16) %0, ptr noundef %1) local_unnamed_addr #0 align 2 {
  %3 = getelementptr inbounds i8, ptr %0, i64 8
  %4 = load ptr, ptr %3, align 8
  %5 = load i32, ptr %4, align 4
  %6 = icmp sgt i32 %5, 0
  br i1 %6, label %.lr.ph, label %._crit_edge

.lr.ph:                                           ; preds = %2, %.lr.ph
  %indvars.iv = phi i64 [ %indvars.iv.next, %.lr.ph ], [ 0, %2 ]
  %.01316 = phi i64 [ %23, %.lr.ph ], [ 0, %2 ]
  %.01415 = phi i64 [ %20, %.lr.ph ], [ 0, %2 ]
  %indvars.iv.next = add nuw nsw i64 %indvars.iv, 1
  %7 = trunc nuw nsw i64 %indvars.iv.next to i32
  tail call void (ptr, ptr, ...) @_ZN12outputStream5printEPKcz(ptr noundef nonnull align 8 dereferenceable(56) %1, ptr noundef nonnull @.str.16, i32 noundef %7) #15
  %8 = load ptr, ptr %3, align 8
  %9 = getelementptr inbounds i8, ptr %8, i64 8
  %10 = load ptr, ptr %9, align 8
  %11 = getelementptr inbounds ptr, ptr %10, i64 %indvars.iv
  %12 = load ptr, ptr %11, align 8
  tail call void @_ZNK14KlassInfoEntry8print_onEP12outputStream(ptr noundef nonnull align 8 dereferenceable(56) %12, ptr noundef nonnull %1)
  %13 = load ptr, ptr %3, align 8
  %14 = getelementptr inbounds i8, ptr %13, i64 8
  %15 = load ptr, ptr %14, align 8
  %16 = getelementptr inbounds ptr, ptr %15, i64 %indvars.iv
  %17 = load ptr, ptr %16, align 8
  %18 = getelementptr inbounds i8, ptr %17, i64 16
  %19 = load i64, ptr %18, align 8
  %20 = add i64 %19, %.01415
  %21 = getelementptr inbounds i8, ptr %17, i64 24
  %22 = load i64, ptr %21, align 8
  %23 = add i64 %22, %.01316
  %24 = load i32, ptr %13, align 4
  %25 = sext i32 %24 to i64
  %26 = icmp slt i64 %indvars.iv.next, %25
  br i1 %26, label %.lr.ph, label %._crit_edge.loopexit, !llvm.loop !13

._crit_edge.loopexit:                             ; preds = %.lr.ph
  %27 = shl i64 %23, 3
  br label %._crit_edge

._crit_edge:                                      ; preds = %._crit_edge.loopexit, %2
  %.014.lcssa = phi i64 [ 0, %2 ], [ %20, %._crit_edge.loopexit ]
  %.013.lcssa = phi i64 [ 0, %2 ], [ %27, %._crit_edge.loopexit ]
  tail call void (ptr, ptr, ...) @_ZN12outputStream8print_crEPKcz(ptr noundef nonnull align 8 dereferenceable(56) %1, ptr noundef nonnull @.str.17, i64 noundef %.014.lcssa, i64 noundef %.013.lcssa) #15
  ret void
}